target datalayout = "e-m:e-p270:32:32-p271:32:32-p272:64:64-i64:64-i128:128-f80:128-n8:16:32:64-S128"
target triple = "x86_64-unknown-linux-gnu"

%struct.BlockDriverState = type { i32, i8, i8, i8, i8, i8, ptr, ptr, ptr, %struct.anon, i8, [4096 x i8], [4096 x i8], [4096 x i8], [16 x i8], ptr, [4096 x i8], %struct.BlockLimits, i32, i32, i32, i32, [32 x i8], %union.anon, %union.anon.0, %union.anon.1, i32, [16 x %struct.anon.2], ptr, %struct.anon.3, ptr, ptr, %struct.anon.4, ptr, ptr, i32, ptr, i64, i64, %struct.QemuMutex, %struct.anon.5, %struct.Stat64, i32, i32, i32, i32, i32, i32, %struct.QemuMutex, %struct.anon.6, %struct.CoQueue, i8, i32, i8, %struct.CoMutex, ptr, ptr }
%struct.anon = type { ptr }
%struct.BlockLimits = type { i32, i64, i32, i64, i32, i32, i32, i64, i32, i64, i64, i32, i8, i32, i32, i32, i32, i32, i32, i32 }
%union.anon = type { %struct.QTailQLink }
%struct.QTailQLink = type { ptr, ptr }
%union.anon.0 = type { %struct.QTailQLink }
%union.anon.1 = type { %struct.QTailQLink }
%struct.anon.2 = type { ptr }
%struct.anon.3 = type { ptr }
%struct.anon.4 = type { ptr }
%struct.anon.5 = type { ptr }
%struct.Stat64 = type { i64 }
%struct.QemuMutex = type { %union.pthread_mutex_t, i8 }
%union.pthread_mutex_t = type { %struct.__pthread_mutex_s }
%struct.__pthread_mutex_s = type { i32, i32, i32, i32, i32, i16, i16, %struct.__pthread_internal_list }
%struct.__pthread_internal_list = type { ptr, ptr }
%struct.anon.6 = type { ptr }
%struct.CoQueue = type { %struct.anon.7 }
%struct.anon.7 = type { ptr, ptr }
%struct.CoMutex = type { i32, ptr, %struct.anon.8, %struct.anon.8, i32, i32, ptr }
%struct.anon.8 = type { ptr }
%struct.BDRVQcow2State = type { i32, i32, i32, i32, i32, i32, i32, i32, i32, i32, i32, i32, i32, i32, i64, i64, ptr, ptr, ptr, ptr, i32, %struct.anon.9, ptr, i64, i32, i32, i64, i64, %struct.CoMutex, %struct.Qcow2CryptoHeaderExtension, ptr, ptr, i8, i32, i64, i32, i32, ptr, i32, i64, i64, i32, i32, i8, i32, i32, i64, ptr, ptr, [5 x i8], i8, i32, i8, i64, i64, i64, i64, ptr, %struct.anon.10, %union.anon.11, i8, ptr, ptr, ptr, %struct.CoQueue, i32, ptr, i8, i8, i32 }
%struct.anon.9 = type { ptr }
%struct.Qcow2CryptoHeaderExtension = type { i64, i64 }
%struct.anon.10 = type { ptr }
%union.anon.11 = type { %struct.QTailQLink }

@stderr = external global ptr, align 8
@.str.42 = private unnamed_addr constant [40 x i8] c"Can't get refcount for cluster %ld: %s\0A\00", align 1
@.str.43 = private unnamed_addr constant [47 x i8] c"There are no references in the refcount table.\00", align 1

; Function Attrs: nounwind sspstrong uwtable
define internal i64 @size_to_clusters(ptr noundef %s, i64 noundef %size) #0 {
entry:
  %s.addr = alloca ptr, align 8
  %size.addr = alloca i64, align 8
  store ptr %s, ptr %s.addr, align 8
  store i64 %size, ptr %size.addr, align 8
  %0 = load i64, ptr %size.addr, align 8
  %1 = load ptr, ptr %s.addr, align 8
  %cluster_size = getelementptr inbounds %struct.BDRVQcow2State, ptr %1, i32 0, i32 1
  %2 = load i32, ptr %cluster_size, align 4
  %sub = sub i32 %2, 1
  %conv = sext i32 %sub to i64
  %add = add i64 %0, %conv
  %3 = load ptr, ptr %s.addr, align 8
  %cluster_bits = getelementptr inbounds %struct.BDRVQcow2State, ptr %3, i32 0, i32 0
  %4 = load i32, ptr %cluster_bits, align 8
  %sh_prom = zext i32 %4 to i64
  %shr = lshr i64 %add, %sh_prom
  ret i64 %shr
}

; Function Attrs: nounwind sspstrong uwtable
define dso_local i64 @qcow2_get_last_cluster(ptr noundef %bs, i64 noundef %size) #0 {
entry:
  %retval = alloca i64, align 8
  %bs.addr = alloca ptr, align 8
  %size.addr = alloca i64, align 8
  %s = alloca ptr, align 8
  %i = alloca i64, align 8
  %refcount = alloca i64, align 8
  %ret = alloca i32, align 4
  store ptr %bs, ptr %bs.addr, align 8
  store i64 %size, ptr %size.addr, align 8
  %0 = load ptr, ptr %bs.addr, align 8
  %opaque = getelementptr inbounds %struct.BlockDriverState, ptr %0, i32 0, i32 7
  %1 = load ptr, ptr %opaque, align 8
  store ptr %1, ptr %s, align 8
  %2 = load ptr, ptr %s, align 8
  %3 = load i64, ptr %size.addr, align 8
  %call = call i64 @size_to_clusters(ptr noundef %2, i64 noundef %3)
  %sub = sub i64 %call, 1
  store i64 %sub, ptr %i, align 8
  br label %for.cond

for.cond:                                         ; preds = %for.inc, %entry
  %4 = load i64, ptr %i, align 8
  %cmp = icmp sge i64 %4, 0
  br i1 %cmp, label %for.body, label %for.end

for.body:                                         ; preds = %for.cond
  %5 = load ptr, ptr %bs.addr, align 8
  %6 = load i64, ptr %i, align 8
  %call1 = call i32 @qcow2_get_refcount(ptr noundef %5, i64 noundef %6, ptr noundef %refcount)
  store i32 %call1, ptr %ret, align 4
  %7 = load i32, ptr %ret, align 4
  %cmp2 = icmp slt i32 %7, 0
  br i1 %cmp2, label %if.then, label %if.end

if.then:                                          ; preds = %for.body
  %8 = load ptr, ptr @stderr, align 8
  %9 = load i64, ptr %i, align 8
  %10 = load i32, ptr %ret, align 4
  %sub3 = sub i32 0, %10
  %call4 = call ptr @strerror(i32 noundef %sub3) #13
  %call5 = call i32 (ptr, ptr, ...) @fprintf(ptr noundef %8, ptr noundef @.str.42, i64 noundef %9, ptr noundef %call4)
  %11 = load i32, ptr %ret, align 4
  %conv = sext i32 %11 to i64
  store i64 %conv, ptr %retval, align 8
  br label %return

if.end:                                           ; preds = %for.body
  %12 = load i64, ptr %refcount, align 8
  %cmp6 = icmp ugt i64 %12, 0
  br i1 %cmp6, label %if.then8, label %if.end9

if.then8:                                         ; preds = %if.end
  %13 = load i64, ptr %i, align 8
  store i64 %13, ptr %retval, align 8
  br label %return

if.end9:                                          ; preds = %if.end
  br label %for.inc

for.inc:                                          ; preds = %if.end9
  %14 = load i64, ptr %i, align 8
  %dec = add i64 %14, -1
  store i64 %dec, ptr %i, align 8
  br label %for.cond, !llvm.loop !49

for.end:                                          ; preds = %for.cond
  %15 = load ptr, ptr %bs.addr, align 8
  call void (ptr, i1, i64, i64, ptr, ...) @qcow2_signal_corruption(ptr noundef %15, i1 noundef zeroext true, i64 noundef -1, i64 noundef -1, ptr noundef @.str.43)
  store i64 -5, ptr %retval, align 8
  br label %return

return:                                           ; preds = %for.end, %if.then8, %if.then
  %16 = load i64, ptr %retval, align 8
  ret i64 %16
}