; Function Attrs: nounwind sspstrong uwtable
define dso_local range(i64 -2147483648, -9223372036854775808) i64 @qcow2_get_last_cluster(ptr noundef %bs, i64 noundef %size) #0 {
entry:
  %refcount = alloca i64, align 8
  %opaque = getelementptr inbounds nuw i8, ptr %bs, i64 24
  %0 = load ptr, ptr %opaque, align 8
  %.val = load i32, ptr %0, align 8
  %1 = getelementptr i8, ptr %0, i64 4
  %.val9 = load i32, ptr %1, align 4
  %sub.i = add i32 %.val9, -1
  %conv.i = sext i32 %sub.i to i64
  %add.i = add i64 %size, %conv.i
  %sh_prom.i = zext nneg i32 %.val to i64
  %shr.i = lshr i64 %add.i, %sh_prom.i
  br label %for.cond

for.cond:                                         ; preds = %if.end, %entry
  %i.0.in = phi i64 [ %shr.i, %entry ], [ %i.0, %if.end ]
  %i.0 = add i64 %i.0.in, -1
  %cmp = icmp sgt i64 %i.0, -1
  br i1 %cmp, label %for.body, label %for.end

for.body:                                         ; preds = %for.cond
  %call1 = call i32 @qcow2_get_refcount(ptr noundef %bs, i64 noundef %i.0, ptr noundef nonnull %refcount)
  %cmp2 = icmp slt i32 %call1, 0
  br i1 %cmp2, label %if.then, label %if.end

if.then:                                          ; preds = %for.body
  %2 = load ptr, ptr @stderr, align 8
  %sub3 = sub i32 0, %call1
  %call4 = tail call ptr @strerror(i32 noundef %sub3) #17
  %call5 = tail call i32 (ptr, ptr, ...) @fprintf(ptr noundef %2, ptr noundef nonnull @.str.42, i64 noundef %i.0, ptr noundef %call4) #19
  %conv = sext i32 %call1 to i64
  br label %return

if.end:                                           ; preds = %for.body
  %3 = load i64, ptr %refcount, align 8
  %cmp6.not = icmp eq i64 %3, 0
  br i1 %cmp6.not, label %for.cond, label %return, !llvm.loop !52

for.end:                                          ; preds = %for.cond
  tail call void (ptr, i1, i64, i64, ptr, ...) @qcow2_signal_corruption(ptr noundef %bs, i1 noundef zeroext true, i64 noundef -1, i64 noundef -1, ptr noundef nonnull @.str.43) #17
  br label %return

return:                                           ; preds = %if.end, %for.end, %if.then
  %retval.0 = phi i64 [ %conv, %if.then ], [ -5, %for.end ], [ %i.0, %if.end ]
  ret i64 %retval.0
}